; Function Attrs: mustprogress nounwind uwtable
define noundef i64 @_ZN7xgboost6common21AlignedMemWriteStream7DoWriteEPKvm(ptr noundef nonnull readonly align 8 captures(none) dereferenceable(24) %0, ptr noundef %1, i64 noundef returned %2) unnamed_addr #10 align 2 personality ptr @__gxx_personality_v0 {
  %4 = getelementptr inbounds nuw i8, ptr %0, i64 16
  %5 = load ptr, ptr %4, align 8, !tbaa !144
  %6 = load ptr, ptr %5, align 8, !tbaa !16
  %7 = getelementptr inbounds nuw i8, ptr %6, i64 8
  %8 = load ptr, ptr %7, align 8
  %9 = invoke noundef i64 %8(ptr noundef nonnull align 8 dereferenceable(24) %5, ptr noundef %1, i64 noundef %2)
          to label %10 unwind label %11

10:                                               ; preds = %3
  ret i64 %2

11:                                               ; preds = %3
  %12 = landingpad { ptr, i32 }
          catch ptr null
  %13 = extractvalue { ptr, i32 } %12, 0
  tail call void @__clang_call_terminate(ptr %13) #39
  unreachable
}